   1              		.cpu cortex-m0
   2              		.fpu softvfp
   3              		.eabi_attribute 20, 1
   4              		.eabi_attribute 21, 1
   5              		.eabi_attribute 23, 3
   6              		.eabi_attribute 24, 1
   7              		.eabi_attribute 25, 1
   8              		.eabi_attribute 26, 1
   9              		.eabi_attribute 30, 6
  10              		.eabi_attribute 34, 0
  11              		.eabi_attribute 18, 4
  12              		.code	16
  13              		.file	"entradas.c"
  14              		.text
  15              	.Ltext0:
  16              		.cfi_sections	.debug_frame
  17              		.section	.text.InicializaEntradas,"ax",%progbits
  18              		.align	2
  19              		.global	InicializaEntradas
  20              		.code	16
  21              		.thumb_func
  23              	InicializaEntradas:
  24              	.LFB0:
  25              		.file 1 "../Sources/entradas.c"
   1:../Sources/entradas.c **** /*
   2:../Sources/entradas.c ****  * entradas.c
   3:../Sources/entradas.c ****  *
   4:../Sources/entradas.c ****  *  Created on: Jul 20, 2016
   5:../Sources/entradas.c ****  *      Author: PDI
   6:../Sources/entradas.c ****  */
   7:../Sources/entradas.c **** #include "entradas.h"
   8:../Sources/entradas.c **** //=========================================================
   9:../Sources/entradas.c **** //
  10:../Sources/entradas.c **** //
  11:../Sources/entradas.c **** //=========================================================
  12:../Sources/entradas.c **** void InicializaEntradas(uint8_t di)
  13:../Sources/entradas.c **** {
  26              		.loc 1 13 0
  27              		.cfi_startproc
  28 0000 80B5     		push	{r7, lr}
  29              	.LCFI0:
  30              		.cfi_def_cfa_offset 8
  31              		.cfi_offset 7, -8
  32              		.cfi_offset 14, -4
  33 0002 82B0     		sub	sp, sp, #8
  34              	.LCFI1:
  35              		.cfi_def_cfa_offset 16
  36 0004 00AF     		add	r7, sp, #0
  37              	.LCFI2:
  38              		.cfi_def_cfa_register 7
  39 0006 021C     		mov	r2, r0
  40 0008 FB1D     		add	r3, r7, #7
  41 000a 1A70     		strb	r2, [r3]
  14:../Sources/entradas.c **** 	switch(di)
  42              		.loc 1 14 0
  43 000c FB1D     		add	r3, r7, #7
  44 000e 1B78     		ldrb	r3, [r3]
  45 0010 012B     		cmp	r3, #1
  46 0012 0ED0     		beq	.L4
  47 0014 02DC     		bgt	.L7
  48 0016 002B     		cmp	r3, #0
  49 0018 05D0     		beq	.L3
  50 001a 1CE0     		b	.L1
  51              	.L7:
  52 001c 022B     		cmp	r3, #2
  53 001e 0ED0     		beq	.L5
  54 0020 032B     		cmp	r3, #3
  55 0022 12D0     		beq	.L6
  56 0024 17E0     		b	.L1
  57              	.L3:
  15:../Sources/entradas.c **** 	{
  16:../Sources/entradas.c **** 		case IN_D0:
  17:../Sources/entradas.c **** 			gpio_direction(PTD,5,INPUT);
  58              		.loc 1 17 0
  59 0026 0320     		mov	r0, #3
  60 0028 0521     		mov	r1, #5
  61 002a 0022     		mov	r2, #0
  62 002c FFF7FEFF 		bl	gpio_direction
  18:../Sources/entradas.c **** 		break;
  63              		.loc 1 18 0
  64 0030 11E0     		b	.L1
  65              	.L4:
  19:../Sources/entradas.c **** 		case IN_D1:
  20:../Sources/entradas.c **** 			gpio_direction(PTA,13,INPUT);
  66              		.loc 1 20 0
  67 0032 0020     		mov	r0, #0
  68 0034 0D21     		mov	r1, #13
  69 0036 0022     		mov	r2, #0
  70 0038 FFF7FEFF 		bl	gpio_direction
  21:../Sources/entradas.c **** 		break;
  71              		.loc 1 21 0
  72 003c 0BE0     		b	.L1
  73              	.L5:
  22:../Sources/entradas.c **** 		case IN_D2:
  23:../Sources/entradas.c **** 			gpio_direction(PTC,9,INPUT);
  74              		.loc 1 23 0
  75 003e 0220     		mov	r0, #2
  76 0040 0921     		mov	r1, #9
  77 0042 0022     		mov	r2, #0
  78 0044 FFF7FEFF 		bl	gpio_direction
  24:../Sources/entradas.c **** 		break;
  79              		.loc 1 24 0
  80 0048 05E0     		b	.L1
  81              	.L6:
  25:../Sources/entradas.c **** 		case IN_D3:
  26:../Sources/entradas.c **** 			gpio_direction(PTC,8,INPUT);
  82              		.loc 1 26 0
  83 004a 0220     		mov	r0, #2
  84 004c 0821     		mov	r1, #8
  85 004e 0022     		mov	r2, #0
  86 0050 FFF7FEFF 		bl	gpio_direction
  27:../Sources/entradas.c **** 		break;
  87              		.loc 1 27 0
  88 0054 C046     		mov	r8, r8
  89              	.L1:
  28:../Sources/entradas.c **** 	}
  29:../Sources/entradas.c **** }
  90              		.loc 1 29 0
  91 0056 BD46     		mov	sp, r7
  92 0058 02B0     		add	sp, sp, #8
  93              		@ sp needed for prologue
  94 005a 80BD     		pop	{r7, pc}
  95              		.cfi_endproc
  96              	.LFE0:
  98              		.section	.text.EntradasDigitais,"ax",%progbits
  99              		.align	2
 100              		.global	EntradasDigitais
 101              		.code	16
 102              		.thumb_func
 104              	EntradasDigitais:
 105              	.LFB1:
  30:../Sources/entradas.c **** //=========================================================
  31:../Sources/entradas.c **** //
  32:../Sources/entradas.c **** //
  33:../Sources/entradas.c **** //=========================================================
  34:../Sources/entradas.c **** bool EntradasDigitais(uint8_t in)
  35:../Sources/entradas.c **** {
 106              		.loc 1 35 0
 107              		.cfi_startproc
 108 0000 80B5     		push	{r7, lr}
 109              	.LCFI3:
 110              		.cfi_def_cfa_offset 8
 111              		.cfi_offset 7, -8
 112              		.cfi_offset 14, -4
 113 0002 82B0     		sub	sp, sp, #8
 114              	.LCFI4:
 115              		.cfi_def_cfa_offset 16
 116 0004 00AF     		add	r7, sp, #0
 117              	.LCFI5:
 118              		.cfi_def_cfa_register 7
 119 0006 021C     		mov	r2, r0
 120 0008 FB1D     		add	r3, r7, #7
 121 000a 1A70     		strb	r2, [r3]
  36:../Sources/entradas.c **** 	switch(in)
 122              		.loc 1 36 0
 123 000c FB1D     		add	r3, r7, #7
 124 000e 1B78     		ldrb	r3, [r3]
 125 0010 012B     		cmp	r3, #1
 126 0012 12D0     		beq	.L11
 127 0014 02DC     		bgt	.L14
 128 0016 002B     		cmp	r3, #0
 129 0018 05D0     		beq	.L10
 130 001a 2CE0     		b	.L9
 131              	.L14:
 132 001c 022B     		cmp	r3, #2
 133 001e 16D0     		beq	.L12
 134 0020 032B     		cmp	r3, #3
 135 0022 1ED0     		beq	.L13
 136 0024 27E0     		b	.L9
 137              	.L10:
  37:../Sources/entradas.c **** 	{
  38:../Sources/entradas.c **** 		case IN_D0:
  39:../Sources/entradas.c **** 			if(gpio_read(PTD,5))
 138              		.loc 1 39 0
 139 0026 0320     		mov	r0, #3
 140 0028 0521     		mov	r1, #5
 141 002a FFF7FEFF 		bl	gpio_read
 142 002e 031C     		mov	r3, r0
 143 0030 01D0     		beq	.L15
  40:../Sources/entradas.c **** 			{
  41:../Sources/entradas.c **** 				return TRUE;
 144              		.loc 1 41 0
 145 0032 0123     		mov	r3, #1
 146 0034 20E0     		b	.L16
 147              	.L15:
  42:../Sources/entradas.c **** 			}
  43:../Sources/entradas.c **** 			else
  44:../Sources/entradas.c **** 			{
  45:../Sources/entradas.c **** 				return FALSE;
 148              		.loc 1 45 0
 149 0036 0023     		mov	r3, #0
 150 0038 1EE0     		b	.L16
 151              	.L11:
  46:../Sources/entradas.c **** 			}
  47:../Sources/entradas.c **** 		break;
  48:../Sources/entradas.c **** 		case IN_D1:
  49:../Sources/entradas.c **** 			if(gpio_read(PTA,13))
 152              		.loc 1 49 0
 153 003a 0020     		mov	r0, #0
 154 003c 0D21     		mov	r1, #13
 155 003e FFF7FEFF 		bl	gpio_read
 156 0042 031C     		mov	r3, r0
 157 0044 01D0     		beq	.L17
  50:../Sources/entradas.c **** 			{
  51:../Sources/entradas.c **** 				return TRUE;
 158              		.loc 1 51 0
 159 0046 0123     		mov	r3, #1
 160 0048 16E0     		b	.L16
 161              	.L17:
  52:../Sources/entradas.c **** 			}
  53:../Sources/entradas.c **** 			else
  54:../Sources/entradas.c **** 			{
  55:../Sources/entradas.c **** 				return FALSE;
 162              		.loc 1 55 0
 163 004a 0023     		mov	r3, #0
 164 004c 14E0     		b	.L16
 165              	.L12:
  56:../Sources/entradas.c **** 			}
  57:../Sources/entradas.c **** 		break;
  58:../Sources/entradas.c **** 		case IN_D2:
  59:../Sources/entradas.c **** 			if(gpio_read(PTC,9))
 166              		.loc 1 59 0
 167 004e 0220     		mov	r0, #2
 168 0050 0921     		mov	r1, #9
 169 0052 FFF7FEFF 		bl	gpio_read
 170 0056 031C     		mov	r3, r0
 171 0058 01D0     		beq	.L18
  60:../Sources/entradas.c **** 			{
  61:../Sources/entradas.c **** 				return TRUE;
 172              		.loc 1 61 0
 173 005a 0123     		mov	r3, #1
 174 005c 0CE0     		b	.L16
 175              	.L18:
  62:../Sources/entradas.c **** 			}
  63:../Sources/entradas.c **** 			else
  64:../Sources/entradas.c **** 			{
  65:../Sources/entradas.c **** 				return FALSE;
 176              		.loc 1 65 0
 177 005e 0023     		mov	r3, #0
 178 0060 0AE0     		b	.L16
 179              	.L13:
  66:../Sources/entradas.c **** 			}
  67:../Sources/entradas.c **** 		break;
  68:../Sources/entradas.c **** 		case IN_D3:
  69:../Sources/entradas.c **** 			if(gpio_read(PTC,8))
 180              		.loc 1 69 0
 181 0062 0220     		mov	r0, #2
 182 0064 0821     		mov	r1, #8
 183 0066 FFF7FEFF 		bl	gpio_read
 184 006a 031C     		mov	r3, r0
 185 006c 01D0     		beq	.L19
  70:../Sources/entradas.c **** 			{
  71:../Sources/entradas.c **** 				return TRUE;
 186              		.loc 1 71 0
 187 006e 0123     		mov	r3, #1
 188 0070 02E0     		b	.L16
 189              	.L19:
  72:../Sources/entradas.c **** 			}
  73:../Sources/entradas.c **** 			else
  74:../Sources/entradas.c **** 			{
  75:../Sources/entradas.c **** 				return FALSE;
 190              		.loc 1 75 0
 191 0072 0023     		mov	r3, #0
 192 0074 00E0     		b	.L16
 193              	.L9:
 194 0076 FFE7     		b	.L8
 195              	.L16:
 196              	.L8:
  76:../Sources/entradas.c **** 			}
  77:../Sources/entradas.c **** 		break;
  78:../Sources/entradas.c **** 	}
  79:../Sources/entradas.c **** }
 197              		.loc 1 79 0
 198 0078 181C     		mov	r0, r3
 199 007a BD46     		mov	sp, r7
 200 007c 02B0     		add	sp, sp, #8
 201              		@ sp needed for prologue
 202 007e 80BD     		pop	{r7, pc}
 203              		.cfi_endproc
 204              	.LFE1:
 206              		.text
 207              	.Letext0:
 208              		.file 2 "../Sources/types.h"