   1              		.cpu cortex-m0
   2              		.fpu softvfp
   3              		.eabi_attribute 20, 1
   4              		.eabi_attribute 21, 1
   5              		.eabi_attribute 23, 3
   6              		.eabi_attribute 24, 1
   7              		.eabi_attribute 25, 1
   8              		.eabi_attribute 26, 1
   9              		.eabi_attribute 30, 6
  10              		.eabi_attribute 34, 0
  11              		.eabi_attribute 18, 4
  12              		.code	16
  13              		.file	"saidas.c"
  14              		.text
  15              	.Ltext0:
  16              		.cfi_sections	.debug_frame
  17              		.section	.text.InicializaSaidas,"ax",%progbits
  18              		.align	2
  19              		.global	InicializaSaidas
  20              		.code	16
  21              		.thumb_func
  23              	InicializaSaidas:
  24              	.LFB0:
  25              		.file 1 "../Sources/saidas.c"
   1:../Sources/saidas.c **** /*
   2:../Sources/saidas.c ****  * saidas.c
   3:../Sources/saidas.c ****  *
   4:../Sources/saidas.c ****  *  Created on: Jul 20, 2016
   5:../Sources/saidas.c ****  *      Author: PDI
   6:../Sources/saidas.c ****  */
   7:../Sources/saidas.c **** #include "saidas.h"
   8:../Sources/saidas.c **** //=========================================================
   9:../Sources/saidas.c **** //
  10:../Sources/saidas.c **** //
  11:../Sources/saidas.c **** //=========================================================
  12:../Sources/saidas.c **** void InicializaSaidas(uint8_t di)
  13:../Sources/saidas.c **** {
  26              		.loc 1 13 0
  27              		.cfi_startproc
  28 0000 80B5     		push	{r7, lr}
  29              	.LCFI0:
  30              		.cfi_def_cfa_offset 8
  31              		.cfi_offset 7, -8
  32              		.cfi_offset 14, -4
  33 0002 82B0     		sub	sp, sp, #8
  34              	.LCFI1:
  35              		.cfi_def_cfa_offset 16
  36 0004 00AF     		add	r7, sp, #0
  37              	.LCFI2:
  38              		.cfi_def_cfa_register 7
  39 0006 021C     		mov	r2, r0
  40 0008 FB1D     		add	r3, r7, #7
  41 000a 1A70     		strb	r2, [r3]
  14:../Sources/saidas.c **** 	switch(di)
  42              		.loc 1 14 0
  43 000c FB1D     		add	r3, r7, #7
  44 000e 1B78     		ldrb	r3, [r3]
  45 0010 012B     		cmp	r3, #1
  46 0012 0FD0     		beq	.L4
  47 0014 02DC     		bgt	.L7
  48 0016 002B     		cmp	r3, #0
  49 0018 05D0     		beq	.L3
  50 001a 20E0     		b	.L1
  51              	.L7:
  52 001c 022B     		cmp	r3, #2
  53 001e 10D0     		beq	.L5
  54 0020 032B     		cmp	r3, #3
  55 0022 15D0     		beq	.L6
  56 0024 1BE0     		b	.L1
  57              	.L3:
  15:../Sources/saidas.c **** 	{
  16:../Sources/saidas.c **** 		case OUT_D0:
  17:../Sources/saidas.c **** 			gpio_direction(PTA,5,OUTPUT,NO_PULL_RESISTOR);
  58              		.loc 1 17 0
  59 0026 0020     		mov	r0, #0
  60 0028 0521     		mov	r1, #5
  61 002a 0122     		mov	r2, #1
  62 002c 0023     		mov	r3, #0
  63 002e FFF7FEFF 		bl	gpio_direction
  18:../Sources/saidas.c **** 		break;
  64              		.loc 1 18 0
  65 0032 14E0     		b	.L1
  66              	.L4:
  19:../Sources/saidas.c **** 		case OUT_D1:
  20:../Sources/saidas.c **** 			gpio_direction(PTA,4,OUTPUT,NO_PULL_RESISTOR);			
  67              		.loc 1 20 0
  68 0034 0020     		mov	r0, #0
  69 0036 0421     		mov	r1, #4
  70 0038 0122     		mov	r2, #1
  71 003a 0023     		mov	r3, #0
  72 003c FFF7FEFF 		bl	gpio_direction
  21:../Sources/saidas.c **** 		break;
  73              		.loc 1 21 0
  74 0040 0DE0     		b	.L1
  75              	.L5:
  22:../Sources/saidas.c **** 		case OUT_D2:
  23:../Sources/saidas.c **** 			gpio_direction(PTA,12,OUTPUT,NO_PULL_RESISTOR);
  76              		.loc 1 23 0
  77 0042 0020     		mov	r0, #0
  78 0044 0C21     		mov	r1, #12
  79 0046 0122     		mov	r2, #1
  80 0048 0023     		mov	r3, #0
  81 004a FFF7FEFF 		bl	gpio_direction
  24:../Sources/saidas.c **** 		break;
  82              		.loc 1 24 0
  83 004e 06E0     		b	.L1
  84              	.L6:
  25:../Sources/saidas.c **** 		case OUT_D3:
  26:../Sources/saidas.c **** 			gpio_direction(PTD,4,OUTPUT,NO_PULL_RESISTOR);
  85              		.loc 1 26 0
  86 0050 0320     		mov	r0, #3
  87 0052 0421     		mov	r1, #4
  88 0054 0122     		mov	r2, #1
  89 0056 0023     		mov	r3, #0
  90 0058 FFF7FEFF 		bl	gpio_direction
  27:../Sources/saidas.c **** 		break;
  91              		.loc 1 27 0
  92 005c C046     		mov	r8, r8
  93              	.L1:
  28:../Sources/saidas.c **** 	}
  29:../Sources/saidas.c **** }
  94              		.loc 1 29 0
  95 005e BD46     		mov	sp, r7
  96 0060 02B0     		add	sp, sp, #8
  97              		@ sp needed for prologue
  98 0062 80BD     		pop	{r7, pc}
  99              		.cfi_endproc
 100              	.LFE0:
 102              		.section	.text.SaidasDigitais,"ax",%progbits
 103              		.align	2
 104              		.global	SaidasDigitais
 105              		.code	16
 106              		.thumb_func
 108              	SaidasDigitais:
 109              	.LFB1:
  30:../Sources/saidas.c **** //=========================================================
  31:../Sources/saidas.c **** //
  32:../Sources/saidas.c **** //
  33:../Sources/saidas.c **** //=========================================================
  34:../Sources/saidas.c **** void SaidasDigitais(uint8_t di, bool st)
  35:../Sources/saidas.c **** {
 110              		.loc 1 35 0
 111              		.cfi_startproc
 112 0000 80B5     		push	{r7, lr}
 113              	.LCFI3:
 114              		.cfi_def_cfa_offset 8
 115              		.cfi_offset 7, -8
 116              		.cfi_offset 14, -4
 117 0002 82B0     		sub	sp, sp, #8
 118              	.LCFI4:
 119              		.cfi_def_cfa_offset 16
 120 0004 00AF     		add	r7, sp, #0
 121              	.LCFI5:
 122              		.cfi_def_cfa_register 7
 123 0006 0A1C     		mov	r2, r1
 124 0008 FB1D     		add	r3, r7, #7
 125 000a 011C     		add	r1, r0, #0
 126 000c 1970     		strb	r1, [r3]
 127 000e BB1D     		add	r3, r7, #6
 128 0010 1A70     		strb	r2, [r3]
  36:../Sources/saidas.c **** 	switch(di)
 129              		.loc 1 36 0
 130 0012 FB1D     		add	r3, r7, #7
 131 0014 1B78     		ldrb	r3, [r3]
 132 0016 012B     		cmp	r3, #1
 133 0018 18D0     		beq	.L11
 134 001a 02DC     		bgt	.L14
 135 001c 002B     		cmp	r3, #0
 136 001e 05D0     		beq	.L10
 137 0020 44E0     		b	.L8
 138              	.L14:
 139 0022 022B     		cmp	r3, #2
 140 0024 22D0     		beq	.L12
 141 0026 032B     		cmp	r3, #3
 142 0028 30D0     		beq	.L13
 143 002a 3FE0     		b	.L8
 144              	.L10:
  37:../Sources/saidas.c **** 	{
  38:../Sources/saidas.c **** 		case OUT_D0:
  39:../Sources/saidas.c **** 			if(st==ON)
 145              		.loc 1 39 0
 146 002c BB1D     		add	r3, r7, #6
 147 002e 1B78     		ldrb	r3, [r3]
 148 0030 012B     		cmp	r3, #1
 149 0032 05D1     		bne	.L15
  40:../Sources/saidas.c **** 			{
  41:../Sources/saidas.c **** 				gpio_set(PTA,5,ON);
 150              		.loc 1 41 0
 151 0034 0020     		mov	r0, #0
 152 0036 0521     		mov	r1, #5
 153 0038 0122     		mov	r2, #1
 154 003a FFF7FEFF 		bl	gpio_set
  42:../Sources/saidas.c **** 			}
  43:../Sources/saidas.c **** 			else
  44:../Sources/saidas.c **** 			{
  45:../Sources/saidas.c **** 				gpio_set(PTA,5,OFF);
  46:../Sources/saidas.c **** 			}
  47:../Sources/saidas.c **** 		break;	
 155              		.loc 1 47 0
 156 003e 35E0     		b	.L8
 157              	.L15:
  45:../Sources/saidas.c **** 				gpio_set(PTA,5,OFF);
 158              		.loc 1 45 0
 159 0040 0020     		mov	r0, #0
 160 0042 0521     		mov	r1, #5
 161 0044 0022     		mov	r2, #0
 162 0046 FFF7FEFF 		bl	gpio_set
 163              		.loc 1 47 0
 164 004a 2FE0     		b	.L8
 165              	.L11:
  48:../Sources/saidas.c **** 		case OUT_D1:
  49:../Sources/saidas.c **** 			if(st==ON)
 166              		.loc 1 49 0
 167 004c BB1D     		add	r3, r7, #6
 168 004e 1B78     		ldrb	r3, [r3]
 169 0050 012B     		cmp	r3, #1
 170 0052 05D1     		bne	.L17
  50:../Sources/saidas.c **** 			{
  51:../Sources/saidas.c **** 				gpio_set(PTA,4,ON);
 171              		.loc 1 51 0
 172 0054 0020     		mov	r0, #0
 173 0056 0421     		mov	r1, #4
 174 0058 0122     		mov	r2, #1
 175 005a FFF7FEFF 		bl	gpio_set
  52:../Sources/saidas.c **** 			}
  53:../Sources/saidas.c **** 			else
  54:../Sources/saidas.c **** 			{
  55:../Sources/saidas.c **** 				gpio_set(PTA,4,OFF);
  56:../Sources/saidas.c **** 			}
  57:../Sources/saidas.c **** 		break;	
 176              		.loc 1 57 0
 177 005e 25E0     		b	.L8
 178              	.L17:
  55:../Sources/saidas.c **** 				gpio_set(PTA,4,OFF);
 179              		.loc 1 55 0
 180 0060 0020     		mov	r0, #0
 181 0062 0421     		mov	r1, #4
 182 0064 0022     		mov	r2, #0
 183 0066 FFF7FEFF 		bl	gpio_set
 184              		.loc 1 57 0
 185 006a 1FE0     		b	.L8
 186              	.L12:
  58:../Sources/saidas.c **** 		case OUT_D2:
  59:../Sources/saidas.c **** 			if(st==ON)
 187              		.loc 1 59 0
 188 006c BB1D     		add	r3, r7, #6
 189 006e 1B78     		ldrb	r3, [r3]
 190 0070 012B     		cmp	r3, #1
 191 0072 05D1     		bne	.L19
  60:../Sources/saidas.c **** 			{
  61:../Sources/saidas.c **** 				gpio_set(PTA,12,ON);
 192              		.loc 1 61 0
 193 0074 0020     		mov	r0, #0
 194 0076 0C21     		mov	r1, #12
 195 0078 0122     		mov	r2, #1
 196 007a FFF7FEFF 		bl	gpio_set
  62:../Sources/saidas.c **** 			}
  63:../Sources/saidas.c **** 			else
  64:../Sources/saidas.c **** 			{
  65:../Sources/saidas.c **** 				gpio_set(PTA,12,OFF);
  66:../Sources/saidas.c **** 			}
  67:../Sources/saidas.c **** 		break;	
 197              		.loc 1 67 0
 198 007e 15E0     		b	.L8
 199              	.L19:
  65:../Sources/saidas.c **** 				gpio_set(PTA,12,OFF);
 200              		.loc 1 65 0
 201 0080 0020     		mov	r0, #0
 202 0082 0C21     		mov	r1, #12
 203 0084 0022     		mov	r2, #0
 204 0086 FFF7FEFF 		bl	gpio_set
 205              		.loc 1 67 0
 206 008a 0FE0     		b	.L8
 207              	.L13:
  68:../Sources/saidas.c **** 		case OUT_D3:
  69:../Sources/saidas.c **** 			if(st==ON)
 208              		.loc 1 69 0
 209 008c BB1D     		add	r3, r7, #6
 210 008e 1B78     		ldrb	r3, [r3]
 211 0090 012B     		cmp	r3, #1
 212 0092 05D1     		bne	.L21
  70:../Sources/saidas.c **** 			{
  71:../Sources/saidas.c **** 				gpio_set(PTA,4,ON);
 213              		.loc 1 71 0
 214 0094 0020     		mov	r0, #0
 215 0096 0421     		mov	r1, #4
 216 0098 0122     		mov	r2, #1
 217 009a FFF7FEFF 		bl	gpio_set
  72:../Sources/saidas.c **** 			}
  73:../Sources/saidas.c **** 			else
  74:../Sources/saidas.c **** 			{
  75:../Sources/saidas.c **** 				gpio_set(PTA,4,OFF);
  76:../Sources/saidas.c **** 			}
  77:../Sources/saidas.c **** 		break;	
 218              		.loc 1 77 0
 219 009e 04E0     		b	.L23
 220              	.L21:
  75:../Sources/saidas.c **** 				gpio_set(PTA,4,OFF);
 221              		.loc 1 75 0
 222 00a0 0020     		mov	r0, #0
 223 00a2 0421     		mov	r1, #4
 224 00a4 0022     		mov	r2, #0
 225 00a6 FFF7FEFF 		bl	gpio_set
 226              	.L23:
 227              		.loc 1 77 0
 228 00aa C046     		mov	r8, r8
 229              	.L8:
  78:../Sources/saidas.c **** 	}
  79:../Sources/saidas.c **** }
 230              		.loc 1 79 0
 231 00ac BD46     		mov	sp, r7
 232 00ae 02B0     		add	sp, sp, #8
 233              		@ sp needed for prologue
 234 00b0 80BD     		pop	{r7, pc}
 235              		.cfi_endproc
 236              	.LFE1:
 238 00b2 C046     		.text
 239              	.Letext0:
 240              		.file 2 "../Sources/types.h"