   1              		.cpu cortex-m0
   2              		.fpu softvfp
   3              		.eabi_attribute 20, 1
   4              		.eabi_attribute 21, 1
   5              		.eabi_attribute 23, 3
   6              		.eabi_attribute 24, 1
   7              		.eabi_attribute 25, 1
   8              		.eabi_attribute 26, 1
   9              		.eabi_attribute 30, 6
  10              		.eabi_attribute 34, 0
  11              		.eabi_attribute 18, 4
  12              		.code	16
  13              		.file	"serial.c"
  14              		.text
  15              	.Ltext0:
  16              		.cfi_sections	.debug_frame
  17              		.section	.text.InicializaSerial,"ax",%progbits
  18              		.align	2
  19              		.global	InicializaSerial
  20              		.code	16
  21              		.thumb_func
  23              	InicializaSerial:
  24              	.LFB0:
  25              		.file 1 "../Sources/serial.c"
   1:../Sources/serial.c **** /*
   2:../Sources/serial.c ****  * serial.c
   3:../Sources/serial.c ****  *
   4:../Sources/serial.c ****  *  Created on: Aug 5, 2016
   5:../Sources/serial.c ****  *      Author: PDI
   6:../Sources/serial.c ****  */
   7:../Sources/serial.c **** #include "serial.h"
   8:../Sources/serial.c **** //=========================================================
   9:../Sources/serial.c **** //
  10:../Sources/serial.c **** //
  11:../Sources/serial.c **** //=========================================================
  12:../Sources/serial.c **** void InicializaSerial(uint32_t baud_rate)
  13:../Sources/serial.c **** {
  26              		.loc 1 13 0
  27              		.cfi_startproc
  28 0000 80B5     		push	{r7, lr}
  29              	.LCFI0:
  30              		.cfi_def_cfa_offset 8
  31              		.cfi_offset 7, -8
  32              		.cfi_offset 14, -4
  33 0002 82B0     		sub	sp, sp, #8
  34              	.LCFI1:
  35              		.cfi_def_cfa_offset 16
  36 0004 00AF     		add	r7, sp, #0
  37              	.LCFI2:
  38              		.cfi_def_cfa_register 7
  39 0006 7860     		str	r0, [r7, #4]
  14:../Sources/serial.c **** 	/* Habilita uart0 - pinos PTA1-RX, PTA2-TX */
  15:../Sources/serial.c **** 	uart_init(UART0_BASE_PTR,(iClock/2),baud_rate);
  40              		.loc 1 15 0
  41 0008 074B     		ldr	r3, .L2
  42 000a 1B88     		ldrh	r3, [r3]
  43 000c 5B08     		lsr	r3, r3, #1
  44 000e 9BB2     		uxth	r3, r3
  45 0010 1A1C     		mov	r2, r3
  46 0012 7B68     		ldr	r3, [r7, #4]
  47 0014 0549     		ldr	r1, .L2+4
  48 0016 081C     		mov	r0, r1
  49 0018 111C     		mov	r1, r2
  50 001a 1A1C     		mov	r2, r3
  51 001c FFF7FEFF 		bl	uart_init
  16:../Sources/serial.c **** }
  52              		.loc 1 16 0
  53 0020 BD46     		mov	sp, r7
  54 0022 02B0     		add	sp, sp, #8
  55              		@ sp needed for prologue
  56 0024 80BD     		pop	{r7, pc}
  57              	.L3:
  58 0026 C046     		.align	2
  59              	.L2:
  60 0028 00000000 		.word	iClock
  61 002c 00A00640 		.word	1074176000
  62              		.cfi_endproc
  63              	.LFE0:
  65              		.section	.text.EnviaCh,"ax",%progbits
  66              		.align	2
  67              		.global	EnviaCh
  68              		.code	16
  69              		.thumb_func
  71              	EnviaCh:
  72              	.LFB1:
  17:../Sources/serial.c **** //=========================================================
  18:../Sources/serial.c **** //
  19:../Sources/serial.c **** //
  20:../Sources/serial.c **** //=========================================================
  21:../Sources/serial.c **** void EnviaCh(char ch)
  22:../Sources/serial.c **** {
  73              		.loc 1 22 0
  74              		.cfi_startproc
  75 0000 80B5     		push	{r7, lr}
  76              	.LCFI3:
  77              		.cfi_def_cfa_offset 8
  78              		.cfi_offset 7, -8
  79              		.cfi_offset 14, -4
  80 0002 82B0     		sub	sp, sp, #8
  81              	.LCFI4:
  82              		.cfi_def_cfa_offset 16
  83 0004 00AF     		add	r7, sp, #0
  84              	.LCFI5:
  85              		.cfi_def_cfa_register 7
  86 0006 021C     		mov	r2, r0
  87 0008 FB1D     		add	r3, r7, #7
  88 000a 1A70     		strb	r2, [r3]
  23:../Sources/serial.c **** 	/* enviar uart0 */
  24:../Sources/serial.c **** 	uart_putchar(UART0_BASE_PTR,ch) ;
  89              		.loc 1 24 0
  90 000c 044A     		ldr	r2, .L5
  91 000e FB1D     		add	r3, r7, #7
  92 0010 1B78     		ldrb	r3, [r3]
  93 0012 101C     		mov	r0, r2
  94 0014 191C     		mov	r1, r3
  95 0016 FFF7FEFF 		bl	uart_putchar
  25:../Sources/serial.c **** }
  96              		.loc 1 25 0
  97 001a BD46     		mov	sp, r7
  98 001c 02B0     		add	sp, sp, #8
  99              		@ sp needed for prologue
 100 001e 80BD     		pop	{r7, pc}
 101              	.L6:
 102              		.align	2
 103              	.L5:
 104 0020 00A00640 		.word	1074176000
 105              		.cfi_endproc
 106              	.LFE1:
 108              		.section	.text.RecebeCh,"ax",%progbits
 109              		.align	2
 110              		.global	RecebeCh
 111              		.code	16
 112              		.thumb_func
 114              	RecebeCh:
 115              	.LFB2:
  26:../Sources/serial.c **** //=========================================================
  27:../Sources/serial.c **** //
  28:../Sources/serial.c **** //
  29:../Sources/serial.c **** //=========================================================
  30:../Sources/serial.c **** char RecebeCh(void)
  31:../Sources/serial.c **** {
 116              		.loc 1 31 0
 117              		.cfi_startproc
 118 0000 80B5     		push	{r7, lr}
 119              	.LCFI6:
 120              		.cfi_def_cfa_offset 8
 121              		.cfi_offset 7, -8
 122              		.cfi_offset 14, -4
 123 0002 00AF     		add	r7, sp, #0
 124              	.LCFI7:
 125              		.cfi_def_cfa_register 7
  32:../Sources/serial.c **** 	/* uart0 */
  33:../Sources/serial.c **** 	return uart_getchar(UART0_BASE_PTR);
 126              		.loc 1 33 0
 127 0004 034B     		ldr	r3, .L8
 128 0006 181C     		mov	r0, r3
 129 0008 FFF7FEFF 		bl	uart_getchar
 130 000c 031C     		mov	r3, r0
  34:../Sources/serial.c **** }
 131              		.loc 1 34 0
 132 000e 181C     		mov	r0, r3
 133 0010 BD46     		mov	sp, r7
 134              		@ sp needed for prologue
 135 0012 80BD     		pop	{r7, pc}
 136              	.L9:
 137              		.align	2
 138              	.L8:
 139 0014 00A00640 		.word	1074176000
 140              		.cfi_endproc
 141              	.LFE2:
 143              		.section	.text.EnviaString,"ax",%progbits
 144              		.align	2
 145              		.global	EnviaString
 146              		.code	16
 147              		.thumb_func
 149              	EnviaString:
 150              	.LFB3:
  35:../Sources/serial.c **** //=========================================================
  36:../Sources/serial.c **** //
  37:../Sources/serial.c **** //
  38:../Sources/serial.c **** //=========================================================
  39:../Sources/serial.c **** void EnviaString(char* msg)
  40:../Sources/serial.c **** {
 151              		.loc 1 40 0
 152              		.cfi_startproc
 153 0000 80B5     		push	{r7, lr}
 154              	.LCFI8:
 155              		.cfi_def_cfa_offset 8
 156              		.cfi_offset 7, -8
 157              		.cfi_offset 14, -4
 158 0002 82B0     		sub	sp, sp, #8
 159              	.LCFI9:
 160              		.cfi_def_cfa_offset 16
 161 0004 00AF     		add	r7, sp, #0
 162              	.LCFI10:
 163              		.cfi_def_cfa_register 7
 164 0006 7860     		str	r0, [r7, #4]
  41:../Sources/serial.c **** 	/* envia string uart0  */
  42:../Sources/serial.c **** 	while(*msg)
 165              		.loc 1 42 0
 166 0008 09E0     		b	.L11
 167              	.L12:
  43:../Sources/serial.c **** 	{
  44:../Sources/serial.c **** 		uart_putchar(UART0_BASE_PTR,*msg) ;
 168              		.loc 1 44 0
 169 000a 7B68     		ldr	r3, [r7, #4]
 170 000c 1B78     		ldrb	r3, [r3]
 171 000e 074A     		ldr	r2, .L13
 172 0010 101C     		mov	r0, r2
 173 0012 191C     		mov	r1, r3
 174 0014 FFF7FEFF 		bl	uart_putchar
  45:../Sources/serial.c **** 		msg++;
 175              		.loc 1 45 0
 176 0018 7B68     		ldr	r3, [r7, #4]
 177 001a 0133     		add	r3, r3, #1
 178 001c 7B60     		str	r3, [r7, #4]
 179              	.L11:
  42:../Sources/serial.c **** 	while(*msg)
 180              		.loc 1 42 0 discriminator 1
 181 001e 7B68     		ldr	r3, [r7, #4]
 182 0020 1B78     		ldrb	r3, [r3]
 183 0022 002B     		cmp	r3, #0
 184 0024 F1D1     		bne	.L12
  46:../Sources/serial.c **** 	}
  47:../Sources/serial.c **** }
 185              		.loc 1 47 0
 186 0026 BD46     		mov	sp, r7
 187 0028 02B0     		add	sp, sp, #8
 188              		@ sp needed for prologue
 189 002a 80BD     		pop	{r7, pc}
 190              	.L14:
 191              		.align	2
 192              	.L13:
 193 002c 00A00640 		.word	1074176000
 194              		.cfi_endproc
 195              	.LFE3:
 197              		.text
 198              	.Letext0:
 199              		.file 2 "C:/Users/PDI/Documents/GitHub/frdm_kl25_kit_automacao/Project_Headers/MKL25Z4.h"
 200              		.file 3 "../Sources/externs.h"